target datalayout = "e-m:e-p270:32:32-p271:32:32-p272:64:64-i64:64-i128:128-f80:128-n8:16:32:64-S128"
target triple = "x86_64-unknown-linux-gnu"

%"class.Assimp::AC3DImporter" = type { %"class.Assimp::BaseImporter", ptr, i8, i8, i32, ptr, i32, i32, i32, i32 }
%"class.Assimp::BaseImporter" = type { ptr, double, double, %"class.std::__cxx11::basic_string", %"class.std::__exception_ptr::exception_ptr", ptr }
%"class.std::__cxx11::basic_string" = type { %"struct.std::__cxx11::basic_string<char>::_Alloc_hider", i64, %union.anon }
%"struct.std::__cxx11::basic_string<char>::_Alloc_hider" = type { ptr }
%union.anon = type { i64, [8 x i8] }
%"class.std::__exception_ptr::exception_ptr" = type { ptr }

; Function Attrs: mustprogress nounwind uwtable
define linkonce_odr hidden noundef zeroext i1 @_ZN6Assimp9IsLineEndIcEEbT_(i8 noundef signext %in) #0 comdat {
entry:
  %in.addr = alloca i8, align 1
  store i8 %in, ptr %in.addr, align 1
  %0 = load i8, ptr %in.addr, align 1
  %conv = sext i8 %0 to i32
  %cmp = icmp eq i32 %conv, 13
  br i1 %cmp, label %lor.end, label %lor.lhs.false

lor.lhs.false:                                    ; preds = %entry
  %1 = load i8, ptr %in.addr, align 1
  %conv1 = sext i8 %1 to i32
  %cmp2 = icmp eq i32 %conv1, 10
  br i1 %cmp2, label %lor.end, label %lor.lhs.false3

lor.lhs.false3:                                   ; preds = %lor.lhs.false
  %2 = load i8, ptr %in.addr, align 1
  %conv4 = sext i8 %2 to i32
  %cmp5 = icmp eq i32 %conv4, 0
  br i1 %cmp5, label %lor.end, label %lor.rhs

lor.rhs:                                          ; preds = %lor.lhs.false3
  %3 = load i8, ptr %in.addr, align 1
  %conv6 = sext i8 %3 to i32
  %cmp7 = icmp eq i32 %conv6, 12
  br label %lor.end

lor.end:                                          ; preds = %lor.rhs, %lor.lhs.false3, %lor.lhs.false, %entry
  %4 = phi i1 [ true, %lor.lhs.false3 ], [ true, %lor.lhs.false ], [ true, %entry ], [ %cmp7, %lor.rhs ]
  ret i1 %4
}

; Function Attrs: mustprogress nounwind uwtable
define linkonce_odr hidden noundef zeroext i1 @_ZN6Assimp10SkipSpacesIcEEbPKT_PS3_(ptr noundef %in, ptr noundef %out) #0 comdat {
entry:
  %in.addr = alloca ptr, align 8
  %out.addr = alloca ptr, align 8
  store ptr %in, ptr %in.addr, align 8
  store ptr %out, ptr %out.addr, align 8
  br label %while.cond

while.cond:                                       ; preds = %while.body, %entry
  %0 = load ptr, ptr %in.addr, align 8
  %1 = load i8, ptr %0, align 1
  %conv = sext i8 %1 to i32
  %cmp = icmp eq i32 %conv, 32
  br i1 %cmp, label %lor.end, label %lor.rhs

lor.rhs:                                          ; preds = %while.cond
  %2 = load ptr, ptr %in.addr, align 8
  %3 = load i8, ptr %2, align 1
  %conv1 = sext i8 %3 to i32
  %cmp2 = icmp eq i32 %conv1, 9
  br label %lor.end

lor.end:                                          ; preds = %lor.rhs, %while.cond
  %4 = phi i1 [ true, %while.cond ], [ %cmp2, %lor.rhs ]
  br i1 %4, label %while.body, label %while.end

while.body:                                       ; preds = %lor.end
  %5 = load ptr, ptr %in.addr, align 8
  %incdec.ptr = getelementptr inbounds i8, ptr %5, i32 1
  store ptr %incdec.ptr, ptr %in.addr, align 8
  br label %while.cond, !llvm.loop !34

while.end:                                        ; preds = %lor.end
  %6 = load ptr, ptr %in.addr, align 8
  %7 = load ptr, ptr %out.addr, align 8
  store ptr %6, ptr %7, align 8
  %8 = load ptr, ptr %in.addr, align 8
  %9 = load i8, ptr %8, align 1
  %call = call noundef zeroext i1 @_ZN6Assimp9IsLineEndIcEEbT_(i8 noundef signext %9)
  %lnot = xor i1 %call, true
  ret i1 %lnot
}

; Function Attrs: mustprogress nounwind uwtable
define linkonce_odr hidden noundef zeroext i1 @_ZN6Assimp8SkipLineIcEEbPKT_PS3_(ptr noundef %in, ptr noundef %out) #0 comdat {
entry:
  %in.addr = alloca ptr, align 8
  %out.addr = alloca ptr, align 8
  store ptr %in, ptr %in.addr, align 8
  store ptr %out, ptr %out.addr, align 8
  br label %while.cond

while.cond:                                       ; preds = %while.body, %entry
  %0 = load ptr, ptr %in.addr, align 8
  %1 = load i8, ptr %0, align 1
  %conv = sext i8 %1 to i32
  %cmp = icmp ne i32 %conv, 13
  br i1 %cmp, label %land.lhs.true, label %land.end

land.lhs.true:                                    ; preds = %while.cond
  %2 = load ptr, ptr %in.addr, align 8
  %3 = load i8, ptr %2, align 1
  %conv1 = sext i8 %3 to i32
  %cmp2 = icmp ne i32 %conv1, 10
  br i1 %cmp2, label %land.rhs, label %land.end

land.rhs:                                         ; preds = %land.lhs.true
  %4 = load ptr, ptr %in.addr, align 8
  %5 = load i8, ptr %4, align 1
  %conv3 = sext i8 %5 to i32
  %cmp4 = icmp ne i32 %conv3, 0
  br label %land.end

land.end:                                         ; preds = %land.rhs, %land.lhs.true, %while.cond
  %6 = phi i1 [ false, %land.lhs.true ], [ false, %while.cond ], [ %cmp4, %land.rhs ]
  br i1 %6, label %while.body, label %while.end

while.body:                                       ; preds = %land.end
  %7 = load ptr, ptr %in.addr, align 8
  %incdec.ptr = getelementptr inbounds i8, ptr %7, i32 1
  store ptr %incdec.ptr, ptr %in.addr, align 8
  br label %while.cond, !llvm.loop !36

while.end:                                        ; preds = %land.end
  br label %while.cond5

while.cond5:                                      ; preds = %while.body10, %while.end
  %8 = load ptr, ptr %in.addr, align 8
  %9 = load i8, ptr %8, align 1
  %conv6 = sext i8 %9 to i32
  %cmp7 = icmp eq i32 %conv6, 13
  br i1 %cmp7, label %lor.end, label %lor.rhs

lor.rhs:                                          ; preds = %while.cond5
  %10 = load ptr, ptr %in.addr, align 8
  %11 = load i8, ptr %10, align 1
  %conv8 = sext i8 %11 to i32
  %cmp9 = icmp eq i32 %conv8, 10
  br label %lor.end

lor.end:                                          ; preds = %lor.rhs, %while.cond5
  %12 = phi i1 [ true, %while.cond5 ], [ %cmp9, %lor.rhs ]
  br i1 %12, label %while.body10, label %while.end12

while.body10:                                     ; preds = %lor.end
  %13 = load ptr, ptr %in.addr, align 8
  %incdec.ptr11 = getelementptr inbounds i8, ptr %13, i32 1
  store ptr %incdec.ptr11, ptr %in.addr, align 8
  br label %while.cond5, !llvm.loop !37

while.end12:                                      ; preds = %lor.end
  %14 = load ptr, ptr %in.addr, align 8
  %15 = load ptr, ptr %out.addr, align 8
  store ptr %14, ptr %15, align 8
  %16 = load ptr, ptr %in.addr, align 8
  %17 = load i8, ptr %16, align 1
  %conv13 = sext i8 %17 to i32
  %cmp14 = icmp ne i32 %conv13, 0
  ret i1 %cmp14
}

; Function Attrs: mustprogress uwtable
define linkonce_odr hidden noundef zeroext i1 @_ZN6Assimp10SkipSpacesIcEEbPPKT_(ptr noundef %inout) #4 comdat {
entry:
  %inout.addr = alloca ptr, align 8
  store ptr %inout, ptr %inout.addr, align 8
  %0 = load ptr, ptr %inout.addr, align 8
  %1 = load ptr, ptr %0, align 8
  %2 = load ptr, ptr %inout.addr, align 8
  %call = call noundef zeroext i1 @_ZN6Assimp10SkipSpacesIcEEbPKT_PS3_(ptr noundef %1, ptr noundef %2)
  ret i1 %call
}

; Function Attrs: mustprogress uwtable
define linkonce_odr hidden noundef zeroext i1 @_ZN6Assimp8SkipLineIcEEbPPKT_(ptr noundef %inout) #4 comdat {
entry:
  %inout.addr = alloca ptr, align 8
  store ptr %inout, ptr %inout.addr, align 8
  %0 = load ptr, ptr %inout.addr, align 8
  %1 = load ptr, ptr %0, align 8
  %2 = load ptr, ptr %inout.addr, align 8
  %call = call noundef zeroext i1 @_ZN6Assimp8SkipLineIcEEbPKT_PS3_(ptr noundef %1, ptr noundef %2)
  ret i1 %call
}

; Function Attrs: mustprogress uwtable
define hidden noundef zeroext i1 @_ZN6Assimp12AC3DImporter11GetNextLineEv(ptr noundef nonnull align 8 dereferenceable(112) %this) #4 align 2 {
entry:
  %this.addr = alloca ptr, align 8
  store ptr %this, ptr %this.addr, align 8
  %this1 = load ptr, ptr %this.addr, align 8
  %buffer = getelementptr inbounds %"class.Assimp::AC3DImporter", ptr %this1, i32 0, i32 1
  %call = call noundef zeroext i1 @_ZN6Assimp8SkipLineIcEEbPPKT_(ptr noundef %buffer)
  %buffer2 = getelementptr inbounds %"class.Assimp::AC3DImporter", ptr %this1, i32 0, i32 1
  %call3 = call noundef zeroext i1 @_ZN6Assimp10SkipSpacesIcEEbPPKT_(ptr noundef %buffer2)
  ret i1 %call3
}