; Function Attrs: mustprogress nofree norecurse nosync nounwind memory(read, argmem: readwrite, inaccessiblemem: none) uwtable
define hidden noundef zeroext i1 @_ZN6Assimp12AC3DImporter11GetNextLineEv(ptr nocapture noundef nonnull align 8 dereferenceable(112) %this) local_unnamed_addr #6 align 2 {
entry:
  %buffer = getelementptr inbounds i8, ptr %this, i64 72
  %0 = load ptr, ptr %buffer, align 8
  br label %while.cond.i.i

while.cond.i.i:                                   ; preds = %while.body.i.i, %entry
  %in.addr.0.i.i = phi ptr [ %0, %entry ], [ %incdec.ptr.i.i, %while.body.i.i ]
  %1 = load i8, ptr %in.addr.0.i.i, align 1
  switch i8 %1, label %while.body.i.i [
    i8 13, label %while.cond5.i.i.preheader
    i8 10, label %while.cond5.i.i.preheader
    i8 0, label %while.cond5.i.i.preheader
  ]

while.cond5.i.i.preheader:                        ; preds = %while.cond.i.i, %while.cond.i.i, %while.cond.i.i
  br label %while.cond5.i.i

while.body.i.i:                                   ; preds = %while.cond.i.i
  %incdec.ptr.i.i = getelementptr inbounds i8, ptr %in.addr.0.i.i, i64 1
  br label %while.cond.i.i, !llvm.loop !4

while.cond5.i.i:                                  ; preds = %while.cond5.i.i.preheader, %while.body10.i.i
  %2 = phi i8 [ %.pre.i.i, %while.body10.i.i ], [ %1, %while.cond5.i.i.preheader ]
  %in.addr.1.i.i = phi ptr [ %incdec.ptr11.i.i, %while.body10.i.i ], [ %in.addr.0.i.i, %while.cond5.i.i.preheader ]
  switch i8 %2, label %_ZN6Assimp8SkipLineIcEEbPPKT_.exit [
    i8 13, label %while.body10.i.i
    i8 10, label %while.body10.i.i
  ]

while.body10.i.i:                                 ; preds = %while.cond5.i.i, %while.cond5.i.i
  %incdec.ptr11.i.i = getelementptr inbounds i8, ptr %in.addr.1.i.i, i64 1
  %.pre.i.i = load i8, ptr %incdec.ptr11.i.i, align 1
  br label %while.cond5.i.i, !llvm.loop !6

_ZN6Assimp8SkipLineIcEEbPPKT_.exit:               ; preds = %while.cond5.i.i
  store ptr %in.addr.1.i.i, ptr %buffer, align 8
  br label %while.cond.i.i1

while.cond.i.i1:                                  ; preds = %while.body.i.i3, %_ZN6Assimp8SkipLineIcEEbPPKT_.exit
  %.in = phi ptr [ %incdec.ptr.i.i4, %while.body.i.i3 ], [ %in.addr.1.i.i, %_ZN6Assimp8SkipLineIcEEbPPKT_.exit ]
  %3 = load i8, ptr %.in, align 1
  switch i8 %3, label %while.end.i.i5 [
    i8 32, label %while.body.i.i3
    i8 9, label %while.body.i.i3
  ]

while.body.i.i3:                                  ; preds = %while.cond.i.i1, %while.cond.i.i1
  %incdec.ptr.i.i4 = getelementptr inbounds i8, ptr %.in, i64 1
  br label %while.cond.i.i1, !llvm.loop !7

while.end.i.i5:                                   ; preds = %while.cond.i.i1
  store ptr %.in, ptr %buffer, align 8
  %4 = load i8, ptr %.in, align 1
  %5 = icmp ugt i8 %4, 13
  %switch.cast = zext nneg i8 %4 to i14
  %switch.downshift = lshr i14 3070, %switch.cast
  %6 = and i14 %switch.downshift, 1
  %switch.masked = icmp ne i14 %6, 0
  %lnot.i.i = select i1 %5, i1 true, i1 %switch.masked
  ret i1 %lnot.i.i
}